; Function Attrs: nounwind sspstrong uwtable
define internal void @riscv_cpu_set_pc(ptr noundef %cs, i64 noundef %value) #3 {
entry:
  %call.i = tail call ptr @object_dynamic_cast_assert(ptr noundef %cs, ptr noundef nonnull @.str.250, ptr noundef nonnull @.str.282, i32 noundef 46, ptr noundef nonnull @__func__.RISCV_CPU) #14
  %xl = getelementptr inbounds nuw i8, ptr %call.i, i64 15200
  %0 = load i32, ptr %xl, align 16
  %cmp = icmp eq i32 %0, 1
  %sext = shl i64 %value, 32
  %conv2 = ashr exact i64 %sext, 32
  %value.sink = select i1 %cmp, i64 %conv2, i64 %value
  %1 = getelementptr inbounds nuw i8, ptr %call.i, i64 14832
  store i64 %value.sink, ptr %1, align 16
  ret void
}